target datalayout = "e-m:e-p270:32:32-p271:32:32-p272:64:64-i64:64-i128:128-f80:128-n8:16:32:64-S128"
target triple = "x86_64-unknown-linux-gnu"

%struct.QTailQLink = type { ptr, ptr }
%struct.BlockDriverState = type { i32, i8, i8, i8, i8, i8, ptr, ptr, ptr, %struct.anon.0, i8, [4096 x i8], [4096 x i8], [4096 x i8], [16 x i8], ptr, [4096 x i8], %struct.BlockLimits, i32, i32, i32, i32, [32 x i8], %union.anon, %union.anon.1, %union.anon.2, i32, [16 x %struct.anon.3], ptr, %struct.anon.4, ptr, ptr, %struct.anon.5, ptr, ptr, i32, ptr, i64, i64, %struct.QemuMutex, %struct.anon.6, %struct.Stat64, i32, i32, i32, i32, i32, i32, %struct.QemuMutex, %struct.anon.7, %struct.CoQueue, i8, i32, i8, %struct.CoMutex, ptr, ptr }
%struct.anon.0 = type { ptr }
%struct.BlockLimits = type { i32, i64, i32, i64, i32, i32, i32, i64, i32, i64, i64, i32, i8, i32, i32, i32, i32, i32, i32, i32 }
%union.anon = type { %struct.QTailQLink }
%union.anon.1 = type { %struct.QTailQLink }
%union.anon.2 = type { %struct.QTailQLink }
%struct.anon.3 = type { ptr }
%struct.anon.4 = type { ptr }
%struct.anon.5 = type { ptr }
%struct.anon.6 = type { ptr }
%struct.Stat64 = type { i64 }
%struct.QemuMutex = type { %union.pthread_mutex_t, i8 }
%union.pthread_mutex_t = type { %struct.__pthread_mutex_s }
%struct.__pthread_mutex_s = type { i32, i32, i32, i32, i32, i16, i16, %struct.__pthread_internal_list }
%struct.__pthread_internal_list = type { ptr, ptr }
%struct.anon.7 = type { ptr }
%struct.CoQueue = type { %struct.anon.8 }
%struct.anon.8 = type { ptr, ptr }
%struct.CoMutex = type { i32, ptr, %struct.anon.9, %struct.anon.9, i32, i32, ptr }
%struct.anon.9 = type { ptr }
%struct.BDRVQuorumState = type { ptr, i32, i32, i32, i8, i8, i32 }
%struct.BdrvChild = type { ptr, ptr, ptr, i32, ptr, i64, i64, i8, i8, %struct.anon.10, %struct.anon.11 }
%struct.anon.10 = type { ptr, ptr }
%struct.anon.11 = type { ptr, ptr }

; Function Attrs: nounwind sspstrong uwtable
define internal void @quorum_report_bad(i32 noundef %type, i64 noundef %offset, i64 noundef %bytes, ptr noundef %node_name, i32 noundef %ret) #0 {
entry:
  %type.addr = alloca i32, align 4
  %offset.addr = alloca i64, align 8
  %bytes.addr = alloca i64, align 8
  %node_name.addr = alloca ptr, align 8
  %ret.addr = alloca i32, align 4
  %msg = alloca ptr, align 8
  %start_sector = alloca i64, align 8
  %end_sector = alloca i64, align 8
  store i32 %type, ptr %type.addr, align 4
  store i64 %offset, ptr %offset.addr, align 8
  store i64 %bytes, ptr %bytes.addr, align 8
  store ptr %node_name, ptr %node_name.addr, align 8
  store i32 %ret, ptr %ret.addr, align 4
  store ptr null, ptr %msg, align 8
  %0 = load i64, ptr %offset.addr, align 8
  %div = udiv i64 %0, 512
  store i64 %div, ptr %start_sector, align 8
  %1 = load i64, ptr %offset.addr, align 8
  %2 = load i64, ptr %bytes.addr, align 8
  %add = add i64 %1, %2
  %add1 = add i64 %add, 512
  %sub = sub i64 %add1, 1
  %div2 = udiv i64 %sub, 512
  store i64 %div2, ptr %end_sector, align 8
  %3 = load i32, ptr %ret.addr, align 4
  %cmp = icmp slt i32 %3, 0
  br i1 %cmp, label %if.then, label %if.end

if.then:                                          ; preds = %entry
  %4 = load i32, ptr %ret.addr, align 4
  %sub3 = sub i32 0, %4
  %call = call ptr @strerror(i32 noundef %sub3) #8
  store ptr %call, ptr %msg, align 8
  br label %if.end

if.end:                                           ; preds = %if.then, %entry
  %5 = load i32, ptr %type.addr, align 4
  %6 = load ptr, ptr %msg, align 8
  %7 = load ptr, ptr %node_name.addr, align 8
  %8 = load i64, ptr %start_sector, align 8
  %9 = load i64, ptr %end_sector, align 8
  %10 = load i64, ptr %start_sector, align 8
  %sub4 = sub i64 %9, %10
  call void @qapi_event_send_quorum_report_bad(i32 noundef %5, ptr noundef %6, ptr noundef %7, i64 noundef %8, i64 noundef %sub4)
  ret void
}

; Function Attrs: nounwind sspstrong uwtable
define internal i32 @quorum_co_block_status(ptr noundef %bs, i1 noundef zeroext %want_zero, i64 noundef %offset, i64 noundef %count, ptr noundef %pnum, ptr noundef %map, ptr noundef %file) #0 {
entry:
  %retval = alloca i32, align 4
  %bs.addr = alloca ptr, align 8
  %want_zero.addr = alloca i8, align 1
  %offset.addr = alloca i64, align 8
  %count.addr = alloca i64, align 8
  %pnum.addr = alloca ptr, align 8
  %map.addr = alloca ptr, align 8
  %file.addr = alloca ptr, align 8
  %s = alloca ptr, align 8
  %i = alloca i32, align 4
  %ret = alloca i32, align 4
  %pnum_zero = alloca i64, align 8
  %pnum_data = alloca i64, align 8
  %bytes = alloca i64, align 8
  %_a7 = alloca i64, align 8
  %_b8 = alloca i64, align 8
  %tmp = alloca i64, align 8
  %_a9 = alloca i64, align 8
  %_b10 = alloca i64, align 8
  %tmp10 = alloca i64, align 8
  store ptr %bs, ptr %bs.addr, align 8
  %frombool = zext i1 %want_zero to i8
  store i8 %frombool, ptr %want_zero.addr, align 1
  store i64 %offset, ptr %offset.addr, align 8
  store i64 %count, ptr %count.addr, align 8
  store ptr %pnum, ptr %pnum.addr, align 8
  store ptr %map, ptr %map.addr, align 8
  store ptr %file, ptr %file.addr, align 8
  %0 = load ptr, ptr %bs.addr, align 8
  %opaque = getelementptr inbounds %struct.BlockDriverState, ptr %0, i32 0, i32 7
  %1 = load ptr, ptr %opaque, align 8
  store ptr %1, ptr %s, align 8
  %2 = load i64, ptr %count.addr, align 8
  store i64 %2, ptr %pnum_zero, align 8
  store i64 0, ptr %pnum_data, align 8
  store i32 0, ptr %i, align 4
  br label %for.cond

for.cond:                                         ; preds = %for.inc, %entry
  %3 = load i32, ptr %i, align 4
  %4 = load ptr, ptr %s, align 8
  %num_children = getelementptr inbounds %struct.BDRVQuorumState, ptr %4, i32 0, i32 1
  %5 = load i32, ptr %num_children, align 8
  %cmp = icmp slt i32 %3, %5
  br i1 %cmp, label %for.body, label %for.end

for.body:                                         ; preds = %for.cond
  %6 = load ptr, ptr %s, align 8
  %children = getelementptr inbounds %struct.BDRVQuorumState, ptr %6, i32 0, i32 0
  %7 = load ptr, ptr %children, align 8
  %8 = load i32, ptr %i, align 4
  %idxprom = sext i32 %8 to i64
  %arrayidx = getelementptr ptr, ptr %7, i64 %idxprom
  %9 = load ptr, ptr %arrayidx, align 8
  %bs1 = getelementptr inbounds %struct.BdrvChild, ptr %9, i32 0, i32 0
  %10 = load ptr, ptr %bs1, align 8
  %11 = load i8, ptr %want_zero.addr, align 1
  %tobool = trunc i8 %11 to i1
  %12 = load i64, ptr %offset.addr, align 8
  %13 = load i64, ptr %count.addr, align 8
  %call = call i32 @bdrv_co_common_block_status_above(ptr noundef %10, ptr noundef null, i1 noundef zeroext false, i1 noundef zeroext %tobool, i64 noundef %12, i64 noundef %13, ptr noundef %bytes, ptr noundef null, ptr noundef null, ptr noundef null)
  store i32 %call, ptr %ret, align 4
  %14 = load i32, ptr %ret, align 4
  %cmp2 = icmp slt i32 %14, 0
  br i1 %cmp2, label %if.then, label %if.end

if.then:                                          ; preds = %for.body
  %15 = load i64, ptr %offset.addr, align 8
  %16 = load i64, ptr %count.addr, align 8
  %17 = load ptr, ptr %s, align 8
  %children3 = getelementptr inbounds %struct.BDRVQuorumState, ptr %17, i32 0, i32 0
  %18 = load ptr, ptr %children3, align 8
  %19 = load i32, ptr %i, align 4
  %idxprom4 = sext i32 %19 to i64
  %arrayidx5 = getelementptr ptr, ptr %18, i64 %idxprom4
  %20 = load ptr, ptr %arrayidx5, align 8
  %bs6 = getelementptr inbounds %struct.BdrvChild, ptr %20, i32 0, i32 0
  %21 = load ptr, ptr %bs6, align 8
  %node_name = getelementptr inbounds %struct.BlockDriverState, ptr %21, i32 0, i32 22
  %arraydecay = getelementptr inbounds [32 x i8], ptr %node_name, i64 0, i64 0
  %22 = load i32, ptr %ret, align 4
  call void @quorum_report_bad(i32 noundef 0, i64 noundef %15, i64 noundef %16, ptr noundef %arraydecay, i32 noundef %22)
  %23 = load i64, ptr %count.addr, align 8
  store i64 %23, ptr %pnum_data, align 8
  br label %for.end

if.end:                                           ; preds = %for.body
  %24 = load i32, ptr %ret, align 4
  %and = and i32 %24, 2
  %tobool7 = icmp ne i32 %and, 0
  br i1 %tobool7, label %if.then8, label %if.else

if.then8:                                         ; preds = %if.end
  %25 = load i64, ptr %pnum_zero, align 8
  store i64 %25, ptr %_a7, align 8
  %26 = load i64, ptr %bytes, align 8
  store i64 %26, ptr %_b8, align 8
  %27 = load i64, ptr %_a7, align 8
  %28 = load i64, ptr %_b8, align 8
  %cmp9 = icmp slt i64 %27, %28
  br i1 %cmp9, label %cond.true, label %cond.false

cond.true:                                        ; preds = %if.then8
  %29 = load i64, ptr %_a7, align 8
  br label %cond.end

cond.false:                                       ; preds = %if.then8
  %30 = load i64, ptr %_b8, align 8
  br label %cond.end

cond.end:                                         ; preds = %cond.false, %cond.true
  %cond = phi i64 [ %29, %cond.true ], [ %30, %cond.false ]
  store i64 %cond, ptr %tmp, align 8
  %31 = load i64, ptr %tmp, align 8
  store i64 %31, ptr %pnum_zero, align 8
  br label %if.end16

if.else:                                          ; preds = %if.end
  %32 = load i64, ptr %pnum_data, align 8
  store i64 %32, ptr %_a9, align 8
  %33 = load i64, ptr %bytes, align 8
  store i64 %33, ptr %_b10, align 8
  %34 = load i64, ptr %_a9, align 8
  %35 = load i64, ptr %_b10, align 8
  %cmp11 = icmp sgt i64 %34, %35
  br i1 %cmp11, label %cond.true12, label %cond.false13

cond.true12:                                      ; preds = %if.else
  %36 = load i64, ptr %_a9, align 8
  br label %cond.end14

cond.false13:                                     ; preds = %if.else
  %37 = load i64, ptr %_b10, align 8
  br label %cond.end14

cond.end14:                                       ; preds = %cond.false13, %cond.true12
  %cond15 = phi i64 [ %36, %cond.true12 ], [ %37, %cond.false13 ]
  store i64 %cond15, ptr %tmp10, align 8
  %38 = load i64, ptr %tmp10, align 8
  store i64 %38, ptr %pnum_data, align 8
  br label %if.end16

if.end16:                                         ; preds = %cond.end14, %cond.end
  br label %for.inc

for.inc:                                          ; preds = %if.end16
  %39 = load i32, ptr %i, align 4
  %inc = add i32 %39, 1
  store i32 %inc, ptr %i, align 4
  br label %for.cond, !llvm.loop !14

for.end:                                          ; preds = %if.then, %for.cond
  %40 = load i64, ptr %pnum_data, align 8
  %tobool17 = icmp ne i64 %40, 0
  br i1 %tobool17, label %if.then18, label %if.else19

if.then18:                                        ; preds = %for.end
  %41 = load i64, ptr %pnum_data, align 8
  %42 = load ptr, ptr %pnum.addr, align 8
  store i64 %41, ptr %42, align 8
  store i32 1, ptr %retval, align 4
  br label %return

if.else19:                                        ; preds = %for.end
  %43 = load i64, ptr %pnum_zero, align 8
  %44 = load ptr, ptr %pnum.addr, align 8
  store i64 %43, ptr %44, align 8
  store i32 2, ptr %retval, align 4
  br label %return

return:                                           ; preds = %if.else19, %if.then18
  %45 = load i32, ptr %retval, align 4
  ret i32 %45
}