; Function Attrs: nounwind sspstrong uwtable
define internal range(i32 1, 3) i32 @quorum_co_block_status(ptr noundef readonly captures(none) %bs, i1 noundef zeroext %want_zero, i64 noundef %offset, i64 noundef %count, ptr noundef writeonly captures(none) %pnum, ptr readnone captures(none) %map, ptr readnone captures(none) %file) #0 {
entry:
  %bytes = alloca i64, align 8
  %opaque = getelementptr inbounds nuw i8, ptr %bs, i64 24
  %0 = load ptr, ptr %opaque, align 8
  %num_children = getelementptr inbounds nuw i8, ptr %0, i64 8
  %1 = load i32, ptr %num_children, align 8
  %cmp23 = icmp sgt i32 %1, 0
  br i1 %cmp23, label %for.body, label %for.end

for.body:                                         ; preds = %entry, %for.inc
  %indvars.iv = phi i64 [ %indvars.iv.next, %for.inc ], [ 0, %entry ]
  %pnum_zero.025 = phi i64 [ %pnum_zero.1, %for.inc ], [ %count, %entry ]
  %pnum_data.024 = phi i64 [ %pnum_data.2, %for.inc ], [ 0, %entry ]
  %2 = load ptr, ptr %0, align 8
  %arrayidx = getelementptr ptr, ptr %2, i64 %indvars.iv
  %3 = load ptr, ptr %arrayidx, align 8
  %4 = load ptr, ptr %3, align 8
  %call = call i32 @bdrv_co_common_block_status_above(ptr noundef %4, ptr noundef null, i1 noundef zeroext false, i1 noundef zeroext %want_zero, i64 noundef %offset, i64 noundef %count, ptr noundef nonnull %bytes, ptr noundef null, ptr noundef null, ptr noundef null) #17
  %cmp2 = icmp slt i32 %call, 0
  br i1 %cmp2, label %quorum_report_bad.exit, label %if.end

quorum_report_bad.exit:                           ; preds = %for.body
  %5 = load ptr, ptr %0, align 8
  %arrayidx5 = getelementptr ptr, ptr %5, i64 %indvars.iv
  %6 = load ptr, ptr %arrayidx5, align 8
  %7 = load ptr, ptr %6, align 8
  %node_name = getelementptr inbounds nuw i8, ptr %7, i64 16600
  %sub3.i = sub i32 0, %call
  %call.i = call ptr @strerror(i32 noundef %sub3.i) #17
  %add.i = add i64 %offset, 511
  %sub.i = add i64 %add.i, %count
  %div25.i = lshr i64 %sub.i, 9
  %div4.i = lshr i64 %offset, 9
  %sub4.i = sub nsw i64 %div25.i, %div4.i
  call void @qapi_event_send_quorum_report_bad(i32 noundef 0, ptr noundef %call.i, ptr noundef nonnull %node_name, i64 noundef %div4.i, i64 noundef %sub4.i) #17
  br label %for.end

if.end:                                           ; preds = %for.body
  %and = and i32 %call, 2
  %tobool7.not = icmp eq i32 %and, 0
  %8 = load i64, ptr %bytes, align 8
  br i1 %tobool7.not, label %if.else, label %if.then8

if.then8:                                         ; preds = %if.end
  %cond = call i64 @llvm.smin.i64(i64 %pnum_zero.025, i64 %8)
  br label %for.inc

if.else:                                          ; preds = %if.end
  %cond15 = call i64 @llvm.smax.i64(i64 %pnum_data.024, i64 %8)
  br label %for.inc

for.inc:                                          ; preds = %if.then8, %if.else
  %pnum_data.2 = phi i64 [ %pnum_data.024, %if.then8 ], [ %cond15, %if.else ]
  %pnum_zero.1 = phi i64 [ %cond, %if.then8 ], [ %pnum_zero.025, %if.else ]
  %indvars.iv.next = add nuw nsw i64 %indvars.iv, 1
  %9 = load i32, ptr %num_children, align 8
  %10 = sext i32 %9 to i64
  %cmp = icmp slt i64 %indvars.iv.next, %10
  br i1 %cmp, label %for.body, label %for.end, !llvm.loop !16

for.end:                                          ; preds = %for.inc, %entry, %quorum_report_bad.exit
  %pnum_zero.021 = phi i64 [ %pnum_zero.025, %quorum_report_bad.exit ], [ %count, %entry ], [ %pnum_zero.1, %for.inc ]
  %pnum_data.1 = phi i64 [ %count, %quorum_report_bad.exit ], [ 0, %entry ], [ %pnum_data.2, %for.inc ]
  %tobool17.not = icmp eq i64 %pnum_data.1, 0
  %pnum_zero.0.pnum_data.1 = select i1 %tobool17.not, i64 %pnum_zero.021, i64 %pnum_data.1
  %. = select i1 %tobool17.not, i32 2, i32 1
  store i64 %pnum_zero.0.pnum_data.1, ptr %pnum, align 8
  ret i32 %.
}